; Function Attrs: mustprogress uwtable
define hidden noundef ptr @_ZNK2cv8tinyxml27XMLNode18NextSiblingElementEPKc(ptr noundef nonnull readonly align 8 captures(none) dereferenceable(88) %0, ptr noundef readonly %1) local_unnamed_addr #4 align 2 {
  %.09.in21 = getelementptr inbounds nuw i8, ptr %0, i64 72
  %.0922 = load ptr, ptr %.09.in21, align 8, !tbaa !98
  %.not23 = icmp eq ptr %.0922, null
  br i1 %.not23, label %.loopexit, label %.lr.ph

.lr.ph:                                           ; preds = %2
  %.not13 = icmp eq ptr %1, null
  br i1 %.not13, label %.lr.ph.split.us, label %.lr.ph.split

.lr.ph.split.us:                                  ; preds = %.lr.ph, %_ZN2cv8tinyxml27XMLUtil11StringEqualEPKcS3_i.exit.us
  %.0924.us = phi ptr [ %.09.us, %_ZN2cv8tinyxml27XMLUtil11StringEqualEPKcS3_i.exit.us ], [ %.0922, %.lr.ph ]
  %3 = load ptr, ptr %.0924.us, align 8, !tbaa !39
  %4 = load ptr, ptr %3, align 8
  %5 = tail call noundef ptr %4(ptr noundef nonnull align 8 dereferenceable(88) %.0924.us)
  %.not12.us = icmp eq ptr %5, null
  br i1 %.not12.us, label %_ZN2cv8tinyxml27XMLUtil11StringEqualEPKcS3_i.exit.us, label %_ZN2cv8tinyxml27XMLUtil11StringEqualEPKcS3_i.exit.thread

_ZN2cv8tinyxml27XMLUtil11StringEqualEPKcS3_i.exit.us: ; preds = %.lr.ph.split.us
  %.09.in.us = getelementptr inbounds nuw i8, ptr %.0924.us, i64 72
  %.09.us = load ptr, ptr %.09.in.us, align 8, !tbaa !98
  %.not.us = icmp eq ptr %.09.us, null
  br i1 %.not.us, label %.loopexit, label %.lr.ph.split.us, !llvm.loop !104

.lr.ph.split:                                     ; preds = %.lr.ph, %_ZN2cv8tinyxml27XMLUtil11StringEqualEPKcS3_i.exit
  %.0924 = phi ptr [ %.09, %_ZN2cv8tinyxml27XMLUtil11StringEqualEPKcS3_i.exit ], [ %.0922, %.lr.ph ]
  %6 = load ptr, ptr %.0924, align 8, !tbaa !39
  %7 = load ptr, ptr %6, align 8
  %8 = tail call noundef ptr %7(ptr noundef nonnull align 8 dereferenceable(88) %.0924)
  %.not12 = icmp eq ptr %8, null
  br i1 %.not12, label %_ZN2cv8tinyxml27XMLUtil11StringEqualEPKcS3_i.exit, label %9

9:                                                ; preds = %.lr.ph.split
  %10 = getelementptr inbounds nuw i8, ptr %.0924, i64 24
  %11 = tail call noundef ptr @_ZN2cv8tinyxml27StrPair6GetStrEv(ptr noundef nonnull align 8 dereferenceable(24) %10)
  %12 = icmp eq ptr %1, %11
  br i1 %12, label %_ZN2cv8tinyxml27XMLUtil11StringEqualEPKcS3_i.exit.thread, label %.preheader.i

.preheader.i:                                     ; preds = %9
  %13 = load i8, ptr %1, align 1, !tbaa !12
  %.not26.i = icmp eq i8 %13, 0
  br i1 %.not26.i, label %.critedge.i.thread, label %.lr.ph.i

.lr.ph.i:                                         ; preds = %.preheader.i, %18
  %14 = phi i8 [ %22, %18 ], [ %13, %.preheader.i ]
  %.029.i = phi i32 [ %21, %18 ], [ 0, %.preheader.i ]
  %.01628.i = phi ptr [ %20, %18 ], [ %11, %.preheader.i ]
  %.01727.i = phi ptr [ %19, %18 ], [ %1, %.preheader.i ]
  %15 = load i8, ptr %.01628.i, align 1, !tbaa !12
  %16 = icmp eq i8 %14, %15
  %17 = icmp ne i32 %.029.i, 2147483647
  %or.cond23.i = select i1 %16, i1 %17, i1 false
  br i1 %or.cond23.i, label %18, label %.critedge.thread.i

18:                                               ; preds = %.lr.ph.i
  %19 = getelementptr inbounds nuw i8, ptr %.01727.i, i64 1
  %20 = getelementptr inbounds nuw i8, ptr %.01628.i, i64 1
  %21 = add nuw nsw i32 %.029.i, 1
  %22 = load i8, ptr %19, align 1, !tbaa !12
  %.not.i = icmp eq i8 %22, 0
  br i1 %.not.i, label %.critedge.i, label %.lr.ph.i, !llvm.loop !32

.critedge.i:                                      ; preds = %18
  %23 = icmp eq i32 %21, 2147483647
  br i1 %23, label %_ZN2cv8tinyxml27XMLUtil11StringEqualEPKcS3_i.exit.thread, label %.critedge.i.thread

.critedge.thread.i:                               ; preds = %.lr.ph.i
  %24 = icmp eq i32 %.029.i, 2147483647
  br i1 %24, label %_ZN2cv8tinyxml27XMLUtil11StringEqualEPKcS3_i.exit.thread, label %_ZN2cv8tinyxml27XMLUtil11StringEqualEPKcS3_i.exit

.critedge.i.thread:                               ; preds = %.preheader.i, %.critedge.i
  %.016.lcssa.i16 = phi ptr [ %20, %.critedge.i ], [ %11, %.preheader.i ]
  %25 = load i8, ptr %.016.lcssa.i16, align 1, !tbaa !12
  %26 = icmp eq i8 %25, 0
  br i1 %26, label %_ZN2cv8tinyxml27XMLUtil11StringEqualEPKcS3_i.exit.thread, label %_ZN2cv8tinyxml27XMLUtil11StringEqualEPKcS3_i.exit

_ZN2cv8tinyxml27XMLUtil11StringEqualEPKcS3_i.exit.thread: ; preds = %9, %.critedge.i.thread, %.critedge.i, %.critedge.thread.i, %.lr.ph.split.us
  %.us-phi = phi ptr [ %.0924.us, %.lr.ph.split.us ], [ %.0924, %.critedge.thread.i ], [ %.0924, %.critedge.i ], [ %.0924, %.critedge.i.thread ], [ %.0924, %9 ]
  %27 = load ptr, ptr %.us-phi, align 8, !tbaa !39
  %28 = load ptr, ptr %27, align 8
  %29 = tail call noundef ptr %28(ptr noundef nonnull align 8 dereferenceable(88) %.us-phi)
  br label %.loopexit

_ZN2cv8tinyxml27XMLUtil11StringEqualEPKcS3_i.exit: ; preds = %.critedge.i.thread, %.critedge.thread.i, %.lr.ph.split
  %.09.in = getelementptr inbounds nuw i8, ptr %.0924, i64 72
  %.09 = load ptr, ptr %.09.in, align 8, !tbaa !98
  %.not = icmp eq ptr %.09, null
  br i1 %.not, label %.loopexit, label %.lr.ph.split, !llvm.loop !104

.loopexit:                                        ; preds = %_ZN2cv8tinyxml27XMLUtil11StringEqualEPKcS3_i.exit, %_ZN2cv8tinyxml27XMLUtil11StringEqualEPKcS3_i.exit.us, %2, %_ZN2cv8tinyxml27XMLUtil11StringEqualEPKcS3_i.exit.thread
  %spec.select = phi ptr [ %29, %_ZN2cv8tinyxml27XMLUtil11StringEqualEPKcS3_i.exit.thread ], [ null, %2 ], [ null, %_ZN2cv8tinyxml27XMLUtil11StringEqualEPKcS3_i.exit.us ], [ null, %_ZN2cv8tinyxml27XMLUtil11StringEqualEPKcS3_i.exit ]
  ret ptr %spec.select
}